target datalayout = "e-m:e-p270:32:32-p271:32:32-p272:64:64-i64:64-i128:128-f80:128-n8:16:32:64-S128"
target triple = "x86_64-pc-linux-gnu"

%struct.CXzBlock = type { i64, i64, i8, [4 x %struct.CXzFilter] }
%struct.CXzFilter = type { i64, i32, [20 x i8] }

; Function Attrs: nounwind uwtable
define i32 @Xz_ReadVarInt(ptr noundef %0, i64 noundef %1, ptr noundef %2) #0 {
  %4 = alloca i32, align 4
  %5 = alloca ptr, align 8
  %6 = alloca i64, align 8
  %7 = alloca ptr, align 8
  %8 = alloca i32, align 4
  %9 = alloca i32, align 4
  %10 = alloca i8, align 1
  store ptr %0, ptr %5, align 8
  store i64 %1, ptr %6, align 8
  store ptr %2, ptr %7, align 8
  %11 = load ptr, ptr %7, align 8
  store i64 0, ptr %11, align 8
  %12 = load i64, ptr %6, align 8
  %13 = icmp ugt i64 %12, 9
  br i1 %13, label %14, label %15

14:                                               ; preds = %3
  br label %18

15:                                               ; preds = %3
  %16 = load i64, ptr %6, align 8
  %17 = trunc i64 %16 to i32
  br label %18

18:                                               ; preds = %15, %14
  %19 = phi i32 [ 9, %14 ], [ %17, %15 ]
  store i32 %19, ptr %9, align 4
  store i32 0, ptr %8, align 4
  br label %20

20:                                               ; preds = %58, %18
  %21 = load i32, ptr %8, align 4
  %22 = load i32, ptr %9, align 4
  %23 = icmp slt i32 %21, %22
  br i1 %23, label %24, label %59

24:                                               ; preds = %20
  %25 = load ptr, ptr %5, align 8
  %26 = load i32, ptr %8, align 4
  %27 = sext i32 %26 to i64
  %28 = getelementptr inbounds i8, ptr %25, i64 %27
  %29 = load i8, ptr %28, align 1
  store i8 %29, ptr %10, align 1
  %30 = load i8, ptr %10, align 1
  %31 = zext i8 %30 to i32
  %32 = and i32 %31, 127
  %33 = sext i32 %32 to i64
  %34 = load i32, ptr %8, align 4
  %35 = add nsw i32 %34, 1
  store i32 %35, ptr %8, align 4
  %36 = mul nsw i32 7, %34
  %37 = zext i32 %36 to i64
  %38 = shl i64 %33, %37
  %39 = load ptr, ptr %7, align 8
  %40 = load i64, ptr %39, align 8
  %41 = or i64 %40, %38
  store i64 %41, ptr %39, align 8
  %42 = load i8, ptr %10, align 1
  %43 = zext i8 %42 to i32
  %44 = and i32 %43, 128
  %45 = icmp eq i32 %44, 0
  br i1 %45, label %46, label %58

46:                                               ; preds = %24
  %47 = load i8, ptr %10, align 1
  %48 = zext i8 %47 to i32
  %49 = icmp eq i32 %48, 0
  br i1 %49, label %50, label %54

50:                                               ; preds = %46
  %51 = load i32, ptr %8, align 4
  %52 = icmp ne i32 %51, 1
  br i1 %52, label %53, label %54

53:                                               ; preds = %50
  br label %56

54:                                               ; preds = %50, %46
  %55 = load i32, ptr %8, align 4
  br label %56

56:                                               ; preds = %54, %53
  %57 = phi i32 [ 0, %53 ], [ %55, %54 ]
  store i32 %57, ptr %4, align 4
  br label %60

58:                                               ; preds = %24
  br label %20

59:                                               ; preds = %20
  store i32 0, ptr %4, align 4
  br label %60

60:                                               ; preds = %59, %56
  %61 = load i32, ptr %4, align 4
  ret i32 %61
}

; Function Attrs: nounwind uwtable
define i32 @XzBlock_Parse(ptr noundef %0, ptr noundef %1) #0 {
  %3 = alloca i32, align 4
  %4 = alloca ptr, align 8
  %5 = alloca ptr, align 8
  %6 = alloca i32, align 4
  %7 = alloca i32, align 4
  %8 = alloca i32, align 4
  %9 = alloca i32, align 4
  %10 = alloca i32, align 4
  %11 = alloca i32, align 4
  %12 = alloca ptr, align 8
  %13 = alloca i64, align 8
  %14 = alloca i32, align 4
  %15 = alloca i32, align 4
  store ptr %0, ptr %4, align 8
  store ptr %1, ptr %5, align 8
  %16 = load ptr, ptr %5, align 8
  %17 = getelementptr inbounds i8, ptr %16, i64 0
  %18 = load i8, ptr %17, align 1
  %19 = zext i8 %18 to i32
  %20 = shl i32 %19, 2
  store i32 %20, ptr %9, align 4
  %21 = load ptr, ptr %5, align 8
  %22 = load i32, ptr %9, align 4
  %23 = zext i32 %22 to i64
  %24 = call i32 @CrcCalc(ptr noundef %21, i64 noundef %23)
  %25 = load ptr, ptr %5, align 8
  %26 = load i32, ptr %9, align 4
  %27 = zext i32 %26 to i64
  %28 = getelementptr inbounds i8, ptr %25, i64 %27
  %29 = load i32, ptr %28, align 1
  %30 = icmp ne i32 %24, %29
  br i1 %30, label %31, label %32

31:                                               ; preds = %2
  store i32 16, ptr %3, align 4
  br label %210

32:                                               ; preds = %2
  store i32 1, ptr %6, align 4
  %33 = load i32, ptr %6, align 4
  %34 = load i32, ptr %9, align 4
  %35 = icmp eq i32 %33, %34
  br i1 %35, label %36, label %37

36:                                               ; preds = %32
  store i32 16, ptr %3, align 4
  br label %210

37:                                               ; preds = %32
  %38 = load ptr, ptr %5, align 8
  %39 = load i32, ptr %6, align 4
  %40 = add i32 %39, 1
  store i32 %40, ptr %6, align 4
  %41 = zext i32 %39 to i64
  %42 = getelementptr inbounds i8, ptr %38, i64 %41
  %43 = load i8, ptr %42, align 1
  %44 = load ptr, ptr %4, align 8
  %45 = getelementptr inbounds %struct.CXzBlock, ptr %44, i32 0, i32 2
  store i8 %43, ptr %45, align 8
  %46 = load ptr, ptr %4, align 8
  %47 = getelementptr inbounds %struct.CXzBlock, ptr %46, i32 0, i32 2
  %48 = load i8, ptr %47, align 8
  %49 = zext i8 %48 to i32
  %50 = and i32 %49, 64
  %51 = icmp ne i32 %50, 0
  br i1 %51, label %52, label %85

52:                                               ; preds = %37
  %53 = load ptr, ptr %5, align 8
  %54 = load i32, ptr %6, align 4
  %55 = zext i32 %54 to i64
  %56 = getelementptr inbounds i8, ptr %53, i64 %55
  %57 = load i32, ptr %9, align 4
  %58 = load i32, ptr %6, align 4
  %59 = sub i32 %57, %58
  %60 = zext i32 %59 to i64
  %61 = load ptr, ptr %4, align 8
  %62 = getelementptr inbounds %struct.CXzBlock, ptr %61, i32 0, i32 0
  %63 = call i32 @Xz_ReadVarInt(ptr noundef %56, i64 noundef %60, ptr noundef %62)
  store i32 %63, ptr %10, align 4
  %64 = load i32, ptr %10, align 4
  %65 = icmp eq i32 %64, 0
  br i1 %65, label %66, label %67

66:                                               ; preds = %52
  store i32 16, ptr %3, align 4
  br label %210

67:                                               ; preds = %52
  %68 = load i32, ptr %10, align 4
  %69 = load i32, ptr %6, align 4
  %70 = add i32 %69, %68
  store i32 %70, ptr %6, align 4
  %71 = load ptr, ptr %4, align 8
  %72 = getelementptr inbounds %struct.CXzBlock, ptr %71, i32 0, i32 0
  %73 = load i64, ptr %72, align 8
  %74 = icmp eq i64 %73, 0
  br i1 %74, label %83, label %75

75:                                               ; preds = %67
  %76 = load ptr, ptr %4, align 8
  %77 = getelementptr inbounds %struct.CXzBlock, ptr %76, i32 0, i32 0
  %78 = load i64, ptr %77, align 8
  %79 = load i32, ptr %9, align 4
  %80 = zext i32 %79 to i64
  %81 = add i64 %78, %80
  %82 = icmp uge i64 %81, -9223372036854775808
  br i1 %82, label %83, label %84

83:                                               ; preds = %75, %67
  store i32 16, ptr %3, align 4
  br label %210

84:                                               ; preds = %75
  br label %85

85:                                               ; preds = %84, %37
  %86 = load ptr, ptr %4, align 8
  %87 = getelementptr inbounds %struct.CXzBlock, ptr %86, i32 0, i32 2
  %88 = load i8, ptr %87, align 8
  %89 = zext i8 %88 to i32
  %90 = and i32 %89, 128
  %91 = icmp ne i32 %90, 0
  br i1 %91, label %92, label %111

92:                                               ; preds = %85
  %93 = load ptr, ptr %5, align 8
  %94 = load i32, ptr %6, align 4
  %95 = zext i32 %94 to i64
  %96 = getelementptr inbounds i8, ptr %93, i64 %95
  %97 = load i32, ptr %9, align 4
  %98 = load i32, ptr %6, align 4
  %99 = sub i32 %97, %98
  %100 = zext i32 %99 to i64
  %101 = load ptr, ptr %4, align 8
  %102 = getelementptr inbounds %struct.CXzBlock, ptr %101, i32 0, i32 1
  %103 = call i32 @Xz_ReadVarInt(ptr noundef %96, i64 noundef %100, ptr noundef %102)
  store i32 %103, ptr %11, align 4
  %104 = load i32, ptr %11, align 4
  %105 = icmp eq i32 %104, 0
  br i1 %105, label %106, label %107

106:                                              ; preds = %92
  store i32 16, ptr %3, align 4
  br label %210

107:                                              ; preds = %92
  %108 = load i32, ptr %11, align 4
  %109 = load i32, ptr %6, align 4
  %110 = add i32 %109, %108
  store i32 %110, ptr %6, align 4
  br label %111

111:                                              ; preds = %107, %85
  %112 = load ptr, ptr %4, align 8
  %113 = getelementptr inbounds %struct.CXzBlock, ptr %112, i32 0, i32 2
  %114 = load i8, ptr %113, align 8
  %115 = zext i8 %114 to i32
  %116 = and i32 %115, 3
  %117 = add nsw i32 %116, 1
  store i32 %117, ptr %7, align 4
  store i32 0, ptr %8, align 4
  br label %118

118:                                              ; preds = %190, %111
  %119 = load i32, ptr %8, align 4
  %120 = load i32, ptr %7, align 4
  %121 = icmp slt i32 %119, %120
  br i1 %121, label %122, label %193

122:                                              ; preds = %118
  %123 = load ptr, ptr %4, align 8
  %124 = getelementptr inbounds %struct.CXzBlock, ptr %123, i32 0, i32 3
  %125 = getelementptr inbounds [4 x %struct.CXzFilter], ptr %124, i64 0, i64 0
  %126 = load i32, ptr %8, align 4
  %127 = sext i32 %126 to i64
  %128 = getelementptr inbounds %struct.CXzFilter, ptr %125, i64 %127
  store ptr %128, ptr %12, align 8
  %129 = load ptr, ptr %5, align 8
  %130 = load i32, ptr %6, align 4
  %131 = zext i32 %130 to i64
  %132 = getelementptr inbounds i8, ptr %129, i64 %131
  %133 = load i32, ptr %9, align 4
  %134 = load i32, ptr %6, align 4
  %135 = sub i32 %133, %134
  %136 = zext i32 %135 to i64
  %137 = load ptr, ptr %12, align 8
  %138 = getelementptr inbounds %struct.CXzFilter, ptr %137, i32 0, i32 0
  %139 = call i32 @Xz_ReadVarInt(ptr noundef %132, i64 noundef %136, ptr noundef %138)
  store i32 %139, ptr %14, align 4
  %140 = load i32, ptr %14, align 4
  %141 = icmp eq i32 %140, 0
  br i1 %141, label %142, label %143

142:                                              ; preds = %122
  store i32 16, ptr %3, align 4
  br label %210

143:                                              ; preds = %122
  %144 = load i32, ptr %14, align 4
  %145 = load i32, ptr %6, align 4
  %146 = add i32 %145, %144
  store i32 %146, ptr %6, align 4
  %147 = load ptr, ptr %5, align 8
  %148 = load i32, ptr %6, align 4
  %149 = zext i32 %148 to i64
  %150 = getelementptr inbounds i8, ptr %147, i64 %149
  %151 = load i32, ptr %9, align 4
  %152 = load i32, ptr %6, align 4
  %153 = sub i32 %151, %152
  %154 = zext i32 %153 to i64
  %155 = call i32 @Xz_ReadVarInt(ptr noundef %150, i64 noundef %154, ptr noundef %13)
  store i32 %155, ptr %15, align 4
  %156 = load i32, ptr %15, align 4
  %157 = icmp eq i32 %156, 0
  br i1 %157, label %158, label %159

158:                                              ; preds = %143
  store i32 16, ptr %3, align 4
  br label %210

159:                                              ; preds = %143
  %160 = load i32, ptr %15, align 4
  %161 = load i32, ptr %6, align 4
  %162 = add i32 %161, %160
  store i32 %162, ptr %6, align 4
  %163 = load i64, ptr %13, align 8
  %164 = load i32, ptr %9, align 4
  %165 = load i32, ptr %6, align 4
  %166 = sub i32 %164, %165
  %167 = zext i32 %166 to i64
  %168 = icmp ugt i64 %163, %167
  br i1 %168, label %172, label %169

169:                                              ; preds = %159
  %170 = load i64, ptr %13, align 8
  %171 = icmp ugt i64 %170, 20
  br i1 %171, label %172, label %173

172:                                              ; preds = %169, %159
  store i32 16, ptr %3, align 4
  br label %210

173:                                              ; preds = %169
  %174 = load i64, ptr %13, align 8
  %175 = trunc i64 %174 to i32
  %176 = load ptr, ptr %12, align 8
  %177 = getelementptr inbounds %struct.CXzFilter, ptr %176, i32 0, i32 1
  store i32 %175, ptr %177, align 8
  %178 = load ptr, ptr %12, align 8
  %179 = getelementptr inbounds %struct.CXzFilter, ptr %178, i32 0, i32 2
  %180 = getelementptr inbounds [20 x i8], ptr %179, i64 0, i64 0
  %181 = load ptr, ptr %5, align 8
  %182 = load i32, ptr %6, align 4
  %183 = zext i32 %182 to i64
  %184 = getelementptr inbounds i8, ptr %181, i64 %183
  %185 = load i64, ptr %13, align 8
  call void @llvm.memcpy.p0.p0.i64(ptr align 4 %180, ptr align 1 %184, i64 %185, i1 false)
  %186 = load i64, ptr %13, align 8
  %187 = trunc i64 %186 to i32
  %188 = load i32, ptr %6, align 4
  %189 = add i32 %188, %187
  store i32 %189, ptr %6, align 4
  br label %190

190:                                              ; preds = %173
  %191 = load i32, ptr %8, align 4
  %192 = add nsw i32 %191, 1
  store i32 %192, ptr %8, align 4
  br label %118

193:                                              ; preds = %118
  br label %194

194:                                              ; preds = %208, %193
  %195 = load i32, ptr %6, align 4
  %196 = load i32, ptr %9, align 4
  %197 = icmp ult i32 %195, %196
  br i1 %197, label %198, label %209

198:                                              ; preds = %194
  %199 = load ptr, ptr %5, align 8
  %200 = load i32, ptr %6, align 4
  %201 = add i32 %200, 1
  store i32 %201, ptr %6, align 4
  %202 = zext i32 %200 to i64
  %203 = getelementptr inbounds i8, ptr %199, i64 %202
  %204 = load i8, ptr %203, align 1
  %205 = zext i8 %204 to i32
  %206 = icmp ne i32 %205, 0
  br i1 %206, label %207, label %208

207:                                              ; preds = %198
  store i32 16, ptr %3, align 4
  br label %210

208:                                              ; preds = %198
  br label %194

209:                                              ; preds = %194
  store i32 0, ptr %3, align 4
  br label %210

210:                                              ; preds = %209, %207, %172, %158, %142, %106, %83, %66, %36, %31
  %211 = load i32, ptr %3, align 4
  ret i32 %211
}