; Function Attrs: nounwind uwtable
define range(i32 0, 17) i32 @XzBlock_Parse(ptr noundef writeonly captures(none) %0, ptr noundef %1) local_unnamed_addr #1 {
  %3 = load i8, ptr %1, align 1
  %4 = zext i8 %3 to i32
  %5 = shl nuw nsw i32 %4, 2
  %6 = zext nneg i32 %5 to i64
  %7 = tail call i32 @CrcCalc(ptr noundef nonnull %1, i64 noundef %6) #10
  %8 = getelementptr inbounds nuw i8, ptr %1, i64 %6
  %9 = load i32, ptr %8, align 1
  %.not = icmp eq i32 %7, %9
  br i1 %.not, label %10, label %Xz_ReadVarInt.exit.thread

10:                                               ; preds = %2
  %11 = getelementptr inbounds nuw i8, ptr %1, i64 1
  %12 = load i8, ptr %11, align 1
  %13 = getelementptr inbounds nuw i8, ptr %0, i64 16
  store i8 %12, ptr %13, align 8
  %14 = and i8 %12, 64
  %.not72 = icmp eq i8 %14, 0
  br i1 %.not72, label %40, label %15

15:                                               ; preds = %10
  %16 = getelementptr inbounds nuw i8, ptr %1, i64 2
  %17 = add nsw i32 %5, -2
  store i64 0, ptr %0, align 8
  %18 = tail call i32 @llvm.umin.i32(i32 %17, i32 9)
  %19 = zext nneg i32 %18 to i64
  br label %20

20:                                               ; preds = %22, %15
  %21 = phi i64 [ %29, %22 ], [ 0, %15 ]
  %indvars.iv.i = phi i64 [ %indvars.iv.next.i, %22 ], [ 0, %15 ]
  %exitcond.not.i = icmp eq i64 %indvars.iv.i, %19
  br i1 %exitcond.not.i, label %Xz_ReadVarInt.exit.thread, label %22

22:                                               ; preds = %20
  %23 = getelementptr inbounds nuw i8, ptr %16, i64 %indvars.iv.i
  %24 = load i8, ptr %23, align 1
  %25 = and i8 %24, 127
  %26 = zext nneg i8 %25 to i64
  %indvars.iv.next.i = add nuw nsw i64 %indvars.iv.i, 1
  %27 = mul nuw nsw i64 %indvars.iv.i, 7
  %28 = shl i64 %26, %27
  %29 = or i64 %28, %21
  store i64 %29, ptr %0, align 8
  %30 = icmp sgt i8 %24, -1
  br i1 %30, label %31, label %20

31:                                               ; preds = %22
  %32 = icmp eq i8 %24, 0
  %33 = icmp ne i64 %indvars.iv.i, 0
  %or.cond.i = and i1 %33, %32
  %34 = icmp eq i64 %29, 0
  %or.cond164 = select i1 %or.cond.i, i1 true, i1 %34
  br i1 %or.cond164, label %Xz_ReadVarInt.exit.thread, label %35

35:                                               ; preds = %31
  %36 = trunc nuw nsw i64 %indvars.iv.next.i to i32
  %37 = add i32 %36, 2
  %38 = add i64 %29, %6
  %39 = icmp slt i64 %38, 0
  br i1 %39, label %Xz_ReadVarInt.exit.thread, label %40

40:                                               ; preds = %35, %10
  %.064 = phi i32 [ %37, %35 ], [ 2, %10 ]
  %.not73 = icmp sgt i8 %12, -1
  br i1 %.not73, label %64, label %41

41:                                               ; preds = %40
  %42 = zext i32 %.064 to i64
  %43 = getelementptr inbounds nuw i8, ptr %1, i64 %42
  %44 = sub i32 %5, %.064
  %45 = getelementptr inbounds nuw i8, ptr %0, i64 8
  store i64 0, ptr %45, align 8
  %46 = tail call i32 @llvm.umin.i32(i32 %44, i32 9)
  %47 = zext nneg i32 %46 to i64
  br label %48

48:                                               ; preds = %50, %41
  %49 = phi i64 [ %57, %50 ], [ 0, %41 ]
  %indvars.iv.i75 = phi i64 [ %indvars.iv.next.i77, %50 ], [ 0, %41 ]
  %exitcond.not.i76 = icmp eq i64 %indvars.iv.i75, %47
  br i1 %exitcond.not.i76, label %Xz_ReadVarInt.exit.thread, label %50

50:                                               ; preds = %48
  %51 = getelementptr inbounds nuw i8, ptr %43, i64 %indvars.iv.i75
  %52 = load i8, ptr %51, align 1
  %53 = and i8 %52, 127
  %54 = zext nneg i8 %53 to i64
  %indvars.iv.next.i77 = add nuw nsw i64 %indvars.iv.i75, 1
  %55 = mul nuw nsw i64 %indvars.iv.i75, 7
  %56 = shl i64 %54, %55
  %57 = or i64 %56, %49
  store i64 %57, ptr %45, align 8
  %58 = icmp sgt i8 %52, -1
  br i1 %58, label %59, label %48

59:                                               ; preds = %50
  %60 = icmp eq i8 %52, 0
  %61 = icmp ne i64 %indvars.iv.i75, 0
  %or.cond.i78 = and i1 %61, %60
  br i1 %or.cond.i78, label %Xz_ReadVarInt.exit.thread, label %Xz_ReadVarInt.exit80

Xz_ReadVarInt.exit80:                             ; preds = %59
  %62 = trunc nuw nsw i64 %indvars.iv.next.i77 to i32
  %63 = add i32 %.064, %62
  br label %64

64:                                               ; preds = %Xz_ReadVarInt.exit80, %40
  %.1 = phi i32 [ %63, %Xz_ReadVarInt.exit80 ], [ %.064, %40 ]
  %65 = and i8 %12, 3
  %narrow = add nuw nsw i8 %65, 1
  %66 = getelementptr inbounds nuw i8, ptr %0, i64 24
  %wide.trip.count = zext nneg i8 %narrow to i64
  br label %67

67:                                               ; preds = %64, %116
  %indvars.iv = phi i64 [ 0, %64 ], [ %indvars.iv.next, %116 ]
  %.2121 = phi i32 [ %.1, %64 ], [ %122, %116 ]
  %68 = getelementptr inbounds nuw %struct.CXzFilter, ptr %66, i64 %indvars.iv
  %69 = zext i32 %.2121 to i64
  %70 = getelementptr inbounds nuw i8, ptr %1, i64 %69
  %71 = sub i32 %5, %.2121
  store i64 0, ptr %68, align 8
  %72 = tail call i32 @llvm.umin.i32(i32 %71, i32 9)
  %73 = zext nneg i32 %72 to i64
  %74 = add i32 %.2121, 2
  br label %75

75:                                               ; preds = %77, %67
  %indvars.iv137 = phi i32 [ %indvars.iv.next138, %77 ], [ %74, %67 ]
  %76 = phi i64 [ %84, %77 ], [ 0, %67 ]
  %indvars.iv.i81 = phi i64 [ %indvars.iv.next.i83, %77 ], [ 0, %67 ]
  %exitcond.not.i82 = icmp eq i64 %indvars.iv.i81, %73
  br i1 %exitcond.not.i82, label %Xz_ReadVarInt.exit.thread, label %77

77:                                               ; preds = %75
  %78 = getelementptr inbounds nuw i8, ptr %70, i64 %indvars.iv.i81
  %79 = load i8, ptr %78, align 1
  %80 = and i8 %79, 127
  %81 = zext nneg i8 %80 to i64
  %indvars.iv.next.i83 = add nuw nsw i64 %indvars.iv.i81, 1
  %82 = mul nuw nsw i64 %indvars.iv.i81, 7
  %83 = shl i64 %81, %82
  %84 = or i64 %83, %76
  store i64 %84, ptr %68, align 8
  %85 = icmp sgt i8 %79, -1
  %indvars.iv.next138 = add i32 %indvars.iv137, 1
  br i1 %85, label %86, label %75

86:                                               ; preds = %77
  %87 = icmp eq i8 %79, 0
  %88 = icmp ne i64 %indvars.iv.i81, 0
  %or.cond.i84 = and i1 %88, %87
  br i1 %or.cond.i84, label %Xz_ReadVarInt.exit.thread, label %Xz_ReadVarInt.exit86

Xz_ReadVarInt.exit86:                             ; preds = %86
  %89 = trunc nuw nsw i64 %indvars.iv.next.i83 to i32
  %90 = add i32 %.2121, %89
  %91 = zext i32 %90 to i64
  %92 = getelementptr inbounds nuw i8, ptr %1, i64 %91
  %93 = sub i32 %5, %90
  %94 = tail call i32 @llvm.umin.i32(i32 %93, i32 9)
  %95 = zext nneg i32 %94 to i64
  br label %96

96:                                               ; preds = %98, %Xz_ReadVarInt.exit86
  %indvars.iv140 = phi i32 [ %indvars.iv.next141, %98 ], [ %indvars.iv137, %Xz_ReadVarInt.exit86 ]
  %97 = phi i64 [ %105, %98 ], [ 0, %Xz_ReadVarInt.exit86 ]
  %indvars.iv.i87 = phi i64 [ %indvars.iv.next.i89, %98 ], [ 0, %Xz_ReadVarInt.exit86 ]
  %exitcond.not.i88 = icmp eq i64 %indvars.iv.i87, %95
  br i1 %exitcond.not.i88, label %Xz_ReadVarInt.exit.thread, label %98

98:                                               ; preds = %96
  %99 = getelementptr inbounds nuw i8, ptr %92, i64 %indvars.iv.i87
  %100 = load i8, ptr %99, align 1
  %101 = and i8 %100, 127
  %102 = zext nneg i8 %101 to i64
  %indvars.iv.next.i89 = add nuw nsw i64 %indvars.iv.i87, 1
  %103 = mul nuw nsw i64 %indvars.iv.i87, 7
  %104 = shl i64 %102, %103
  %105 = or i64 %104, %97
  %106 = icmp sgt i8 %100, -1
  %indvars.iv.next141 = add i32 %indvars.iv140, 1
  br i1 %106, label %107, label %96

107:                                              ; preds = %98
  %108 = icmp eq i8 %100, 0
  %109 = icmp ne i64 %indvars.iv.i87, 0
  %or.cond.i90 = and i1 %109, %108
  br i1 %or.cond.i90, label %Xz_ReadVarInt.exit.thread, label %Xz_ReadVarInt.exit92

Xz_ReadVarInt.exit92:                             ; preds = %107
  %110 = trunc nuw nsw i64 %indvars.iv.next.i89 to i32
  %111 = add i32 %90, %110
  %112 = sub i32 %5, %111
  %113 = zext i32 %112 to i64
  %114 = icmp ugt i64 %105, %113
  %115 = icmp ugt i64 %105, 20
  %or.cond = or i1 %114, %115
  br i1 %or.cond, label %Xz_ReadVarInt.exit.thread, label %116

116:                                              ; preds = %Xz_ReadVarInt.exit92
  %117 = trunc nuw i64 %105 to i32
  %118 = getelementptr inbounds nuw i8, ptr %68, i64 8
  store i32 %117, ptr %118, align 8
  %119 = getelementptr inbounds nuw i8, ptr %68, i64 12
  %120 = zext i32 %111 to i64
  %121 = getelementptr inbounds nuw i8, ptr %1, i64 %120
  tail call void @llvm.memcpy.p0.p0.i64(ptr nonnull align 4 %119, ptr nonnull align 1 %121, i64 %105, i1 false)
  %122 = add i32 %111, %117
  %indvars.iv.next = add nuw nsw i64 %indvars.iv, 1
  %exitcond.not = icmp eq i64 %indvars.iv.next, %wide.trip.count
  br i1 %exitcond.not, label %.preheader.preheader, label %67

.preheader.preheader:                             ; preds = %116
  %123 = add i32 %indvars.iv140, %117
  %124 = zext i32 %123 to i64
  br label %.preheader

.preheader:                                       ; preds = %.preheader.preheader, %126
  %indvars.iv144 = phi i64 [ %124, %.preheader.preheader ], [ %indvars.iv.next145, %126 ]
  %125 = icmp samesign ult i64 %indvars.iv144, %6
  br i1 %125, label %126, label %Xz_ReadVarInt.exit.thread

126:                                              ; preds = %.preheader
  %indvars.iv.next145 = add nuw nsw i64 %indvars.iv144, 1
  %127 = getelementptr inbounds nuw i8, ptr %1, i64 %indvars.iv144
  %128 = load i8, ptr %127, align 1
  %.not74 = icmp eq i8 %128, 0
  br i1 %.not74, label %.preheader, label %Xz_ReadVarInt.exit.thread

Xz_ReadVarInt.exit.thread:                        ; preds = %20, %48, %107, %86, %Xz_ReadVarInt.exit92, %75, %96, %.preheader, %126, %59, %31, %35, %2
  %.0 = phi i32 [ 16, %2 ], [ 16, %35 ], [ 16, %31 ], [ 16, %59 ], [ 0, %.preheader ], [ 16, %126 ], [ 16, %96 ], [ 16, %75 ], [ 16, %Xz_ReadVarInt.exit92 ], [ 16, %86 ], [ 16, %107 ], [ 16, %48 ], [ 16, %20 ]
  ret i32 %.0
}